target datalayout = "e-m:e-p270:32:32-p271:32:32-p272:64:64-i64:64-i128:128-f80:128-n8:16:32:64-S128"
target triple = "x86_64-unknown-linux-gnu"

%"class.OpenColorIO_v2_4dev::Lut3DTransformImpl" = type { %"class.OpenColorIO_v2_4dev::Lut3DTransform", %"class.OpenColorIO_v2_4dev::Lut3DOpData" }
%"class.OpenColorIO_v2_4dev::Lut3DTransform" = type { %"class.OpenColorIO_v2_4dev::Transform" }
%"class.OpenColorIO_v2_4dev::Transform" = type { ptr }
%"class.OpenColorIO_v2_4dev::Lut3DOpData" = type { %"class.OpenColorIO_v2_4dev::OpData", i32, %"class.OpenColorIO_v2_4dev::Lut3DOpData::Lut3DArray", i32, i32 }
%"class.OpenColorIO_v2_4dev::OpData" = type { ptr, %"class.std::mutex", %"class.OpenColorIO_v2_4dev::FormatMetadataImpl" }
%"class.std::mutex" = type { %"class.std::__mutex_base" }
%"class.std::__mutex_base" = type { %union.pthread_mutex_t }
%union.pthread_mutex_t = type { %struct.__pthread_mutex_s }
%struct.__pthread_mutex_s = type { i32, i32, i32, i32, i32, i16, i16, %struct.__pthread_internal_list }
%struct.__pthread_internal_list = type { ptr, ptr }
%"class.OpenColorIO_v2_4dev::FormatMetadataImpl" = type { %"class.OpenColorIO_v2_4dev::FormatMetadata", %"class.std::__cxx11::basic_string", %"class.std::__cxx11::basic_string", %"class.std::vector", %"class.std::vector.3" }
%"class.OpenColorIO_v2_4dev::FormatMetadata" = type { ptr }
%"class.std::__cxx11::basic_string" = type { %"struct.std::__cxx11::basic_string<char>::_Alloc_hider", i64, %union.anon }
%"struct.std::__cxx11::basic_string<char>::_Alloc_hider" = type { ptr }
%union.anon = type { i64, [8 x i8] }
%"class.std::vector" = type { %"struct.std::_Vector_base" }
%"struct.std::_Vector_base" = type { %"struct.std::_Vector_base<std::pair<std::__cxx11::basic_string<char>, std::__cxx11::basic_string<char>>, std::allocator<std::pair<std::__cxx11::basic_string<char>, std::__cxx11::basic_string<char>>>>::_Vector_impl" }
%"struct.std::_Vector_base<std::pair<std::__cxx11::basic_string<char>, std::__cxx11::basic_string<char>>, std::allocator<std::pair<std::__cxx11::basic_string<char>, std::__cxx11::basic_string<char>>>>::_Vector_impl" = type { %"struct.std::_Vector_base<std::pair<std::__cxx11::basic_string<char>, std::__cxx11::basic_string<char>>, std::allocator<std::pair<std::__cxx11::basic_string<char>, std::__cxx11::basic_string<char>>>>::_Vector_impl_data" }
%"struct.std::_Vector_base<std::pair<std::__cxx11::basic_string<char>, std::__cxx11::basic_string<char>>, std::allocator<std::pair<std::__cxx11::basic_string<char>, std::__cxx11::basic_string<char>>>>::_Vector_impl_data" = type { ptr, ptr, ptr }
%"class.std::vector.3" = type { %"struct.std::_Vector_base.4" }
%"struct.std::_Vector_base.4" = type { %"struct.std::_Vector_base<OpenColorIO_v2_4dev::FormatMetadataImpl, std::allocator<OpenColorIO_v2_4dev::FormatMetadataImpl>>::_Vector_impl" }
%"struct.std::_Vector_base<OpenColorIO_v2_4dev::FormatMetadataImpl, std::allocator<OpenColorIO_v2_4dev::FormatMetadataImpl>>::_Vector_impl" = type { %"struct.std::_Vector_base<OpenColorIO_v2_4dev::FormatMetadataImpl, std::allocator<OpenColorIO_v2_4dev::FormatMetadataImpl>>::_Vector_impl_data" }
%"struct.std::_Vector_base<OpenColorIO_v2_4dev::FormatMetadataImpl, std::allocator<OpenColorIO_v2_4dev::FormatMetadataImpl>>::_Vector_impl_data" = type { ptr, ptr, ptr }
%"class.OpenColorIO_v2_4dev::Lut3DOpData::Lut3DArray" = type { %"class.OpenColorIO_v2_4dev::ArrayT" }
%"class.OpenColorIO_v2_4dev::ArrayT" = type { %"class.OpenColorIO_v2_4dev::ArrayBase", i64, i64, %"class.std::vector.8" }
%"class.OpenColorIO_v2_4dev::ArrayBase" = type { ptr }
%"class.std::vector.8" = type { %"struct.std::_Vector_base.9" }
%"struct.std::_Vector_base.9" = type { %"struct.std::_Vector_base<float, std::allocator<float>>::_Vector_impl" }
%"struct.std::_Vector_base<float, std::allocator<float>>::_Vector_impl" = type { %"struct.std::_Vector_base<float, std::allocator<float>>::_Vector_impl_data" }
%"struct.std::_Vector_base<float, std::allocator<float>>::_Vector_impl_data" = type { ptr, ptr, ptr }

@_ZTIN19OpenColorIO_v2_4dev14Lut3DTransformE = linkonce_odr constant { ptr, ptr, ptr } { ptr getelementptr inbounds (ptr, ptr @_ZTVN10__cxxabiv120__si_class_type_infoE, i64 2), ptr @_ZTSN19OpenColorIO_v2_4dev14Lut3DTransformE, ptr @_ZTIN19OpenColorIO_v2_4dev9TransformE }, comdat, align 8
@_ZTIN19OpenColorIO_v2_4dev18Lut3DTransformImplE = hidden constant { ptr, ptr, ptr } { ptr getelementptr inbounds (ptr, ptr @_ZTVN10__cxxabiv120__si_class_type_infoE, i64 2), ptr @_ZTSN19OpenColorIO_v2_4dev18Lut3DTransformImplE, ptr @_ZTIN19OpenColorIO_v2_4dev14Lut3DTransformE }, align 8

; Function Attrs: mustprogress nounwind uwtable
define linkonce_odr hidden noundef nonnull align 8 dereferenceable(232) ptr @_ZNK19OpenColorIO_v2_4dev18Lut3DTransformImpl4dataEv(ptr noundef nonnull align 8 dereferenceable(240) %this) #7 comdat align 2 {
entry:
  %this.addr = alloca ptr, align 8
  store ptr %this, ptr %this.addr, align 8
  %this1 = load ptr, ptr %this.addr, align 8
  %m_data = getelementptr inbounds %"class.OpenColorIO_v2_4dev::Lut3DTransformImpl", ptr %this1, i32 0, i32 1
  ret ptr %m_data
}

; Function Attrs: mustprogress nounwind uwtable
define hidden noundef zeroext i1 @_ZNK19OpenColorIO_v2_4dev18Lut3DTransformImpl6equalsERKNS_14Lut3DTransformE(ptr noundef nonnull align 8 dereferenceable(240) %this, ptr noundef nonnull align 8 dereferenceable(8) %other) unnamed_addr #7 align 2 personality ptr @__gxx_personality_v0 {
entry:
  %retval = alloca i1, align 1
  %this.addr = alloca ptr, align 8
  %other.addr = alloca ptr, align 8
  store ptr %this, ptr %this.addr, align 8
  store ptr %other, ptr %other.addr, align 8
  %this1 = load ptr, ptr %this.addr, align 8
  %0 = load ptr, ptr %other.addr, align 8
  %cmp = icmp eq ptr %this1, %0
  br i1 %cmp, label %if.then, label %if.end

if.then:                                          ; preds = %entry
  store i1 true, ptr %retval, align 1
  br label %return

if.end:                                           ; preds = %entry
  %call = call noundef nonnull align 8 dereferenceable(232) ptr @_ZNK19OpenColorIO_v2_4dev18Lut3DTransformImpl4dataEv(ptr noundef nonnull align 8 dereferenceable(240) %this1) #3
  %1 = load ptr, ptr %other.addr, align 8
  %2 = icmp eq ptr %1, null
  br i1 %2, label %dynamic_cast.null, label %dynamic_cast.notnull

dynamic_cast.notnull:                             ; preds = %if.end
  %3 = call ptr @__dynamic_cast(ptr %1, ptr @_ZTIN19OpenColorIO_v2_4dev14Lut3DTransformE, ptr @_ZTIN19OpenColorIO_v2_4dev18Lut3DTransformImplE, i64 0) #3
  br label %dynamic_cast.end

dynamic_cast.null:                                ; preds = %if.end
  br label %dynamic_cast.end

dynamic_cast.end:                                 ; preds = %dynamic_cast.null, %dynamic_cast.notnull
  %4 = phi ptr [ %3, %dynamic_cast.notnull ], [ null, %dynamic_cast.null ]
  %call2 = call noundef nonnull align 8 dereferenceable(232) ptr @_ZNK19OpenColorIO_v2_4dev18Lut3DTransformImpl4dataEv(ptr noundef nonnull align 8 dereferenceable(240) %4) #3
  %call3 = invoke noundef zeroext i1 @_ZN19OpenColorIO_v2_4deveqERKNS_11Lut3DOpDataES2_(ptr noundef nonnull align 8 dereferenceable(232) %call, ptr noundef nonnull align 8 dereferenceable(232) %call2)
          to label %invoke.cont unwind label %terminate.lpad

invoke.cont:                                      ; preds = %dynamic_cast.end
  store i1 %call3, ptr %retval, align 1
  br label %return

return:                                           ; preds = %invoke.cont, %if.then
  %5 = load i1, ptr %retval, align 1
  ret i1 %5

terminate.lpad:                                   ; preds = %dynamic_cast.end
  %6 = landingpad { ptr, i32 }
          catch ptr null
  %7 = extractvalue { ptr, i32 } %6, 0
  call void @__clang_call_terminate(ptr %7) #16
  unreachable
}